---
triple:          'arm64-apple-darwin'
binary-path:     '/Users/akashchaturvedi/Documents/VS/DSA_practice/main'
relocations:
  - { offsetInCU: 0x41CC, offset: 0x41CC, size: 0x8, addend: 0x0, symName: __ZNSt3__124__put_character_sequenceB7v160006IcNS_11char_traitsIcEEEERNS_13basic_ostreamIT_T0_EES7_PKS4_m, symObjAddr: 0x4434, symBinAddr: 0x100006B84, symSize: 0x1EC }
  - { offsetInCU: 0x6DE4, offset: 0x6DE4, size: 0x8, addend: 0x0, symName: __ZNSt3__14endlB7v160006IcNS_11char_traitsIcEEEERNS_13basic_ostreamIT_T0_EES7_, symObjAddr: 0x274, symBinAddr: 0x1000029C4, symSize: 0x58 }
  - { offsetInCU: 0x6E24, offset: 0x6E24, size: 0x8, addend: 0x0, symName: __ZNSt3__1lsB7v160006INS_11char_traitsIcEEEERNS_13basic_ostreamIcT_EES6_PKc, symObjAddr: 0x4BC, symBinAddr: 0x100002C0C, symSize: 0x48 }
  - { offsetInCU: 0x7031, offset: 0x7031, size: 0x8, addend: 0x0, symName: __ZNSt3__1neB7v160006ERKNS_16__deque_iteratorIP4NodePS2_RS2_PS3_lLl512EEES8_, symObjAddr: 0xDA0, symBinAddr: 0x1000034F0, symSize: 0x34 }
  - { offsetInCU: 0x706E, offset: 0x706E, size: 0x8, addend: 0x0, symName: __ZNSt3__1eqB7v160006ERKNS_16__deque_iteratorIP4NodePS2_RS2_PS3_lLl512EEES8_, symObjAddr: 0x1040, symBinAddr: 0x100003790, symSize: 0x30 }
  - { offsetInCU: 0x70AB, offset: 0x70AB, size: 0x8, addend: 0x0, symName: __ZNSt3__119__libcpp_deallocateB7v160006EPvmm, symObjAddr: 0x1148, symBinAddr: 0x100003898, symSize: 0x30 }
  - { offsetInCU: 0x70F3, offset: 0x70F3, size: 0x8, addend: 0x0, symName: __ZNSt3__127__do_deallocate_handle_sizeB7v160006IJEEEvPvmDpT_, symObjAddr: 0x1178, symBinAddr: 0x1000038C8, symSize: 0x28 }
  - { offsetInCU: 0x7131, offset: 0x7131, size: 0x8, addend: 0x0, symName: __ZNSt3__124__libcpp_operator_deleteB7v160006IJPvEEEvDpT_, symObjAddr: 0x11A0, symBinAddr: 0x1000038F0, symSize: 0x24 }
  - { offsetInCU: 0x7166, offset: 0x7166, size: 0x8, addend: 0x0, symName: __ZNSt3__112__to_addressB7v160006IPP4NodeEEPT_S5_, symObjAddr: 0x1424, symBinAddr: 0x100003B74, symSize: 0x14 }
  - { offsetInCU: 0x719B, offset: 0x719B, size: 0x8, addend: 0x0, symName: __ZNSt3__13maxB7v160006ImEERKT_S3_S3_, symObjAddr: 0x24C0, symBinAddr: 0x100004C10, symSize: 0x2C }
  - { offsetInCU: 0x7637, offset: 0x7637, size: 0x8, addend: 0x0, symName: __ZNSt3__14swapB7v160006IPPP4NodeEENS_9enable_ifIXaasr21is_move_constructibleIT_EE5valuesr18is_move_assignableIS6_EE5valueEvE4typeERS6_S9_, symObjAddr: 0x2AD0, symBinAddr: 0x100005220, symSize: 0x3C }
  - { offsetInCU: 0x7688, offset: 0x7688, size: 0x8, addend: 0x0, symName: __ZNSt3__14moveB7v160006IPPP4NodeS4_EET0_T_S6_S5_, symObjAddr: 0x2BB4, symBinAddr: 0x100005304, symSize: 0x40 }
  - { offsetInCU: 0x76FE, offset: 0x76FE, size: 0x8, addend: 0x0, symName: __ZNSt3__16__moveB7v160006INS_17_ClassicAlgPolicyEPPP4NodeS5_S5_EENS_4pairIT0_T2_EES7_T1_S8_, symObjAddr: 0x2D58, symBinAddr: 0x1000054A8, symSize: 0x44 }
  - { offsetInCU: 0x776A, offset: 0x776A, size: 0x8, addend: 0x0, symName: __ZNSt3__123__dispatch_copy_or_moveB7v160006INS_17_ClassicAlgPolicyENS_11__move_loopIS1_EENS_14__move_trivialEPPP4NodeS8_S8_EENS_4pairIT2_T4_EESA_T3_SB_, symObjAddr: 0x2D9C, symBinAddr: 0x1000054EC, symSize: 0x44 }
  - { offsetInCU: 0x77E8, offset: 0x77E8, size: 0x8, addend: 0x0, symName: __ZNSt3__121__unwrap_and_dispatchB7v160006INS_10__overloadINS_11__move_loopINS_17_ClassicAlgPolicyEEENS_14__move_trivialEEEPPP4NodeSA_SA_Li0EEENS_4pairIT0_T2_EESC_T1_SD_, symObjAddr: 0x2DE0, symBinAddr: 0x100005530, symSize: 0xB4 }
  - { offsetInCU: 0x7876, offset: 0x7876, size: 0x8, addend: 0x0, symName: __ZNSt3__114__unwrap_rangeB7v160006IPPP4NodeS4_EENS_4pairIT0_S6_EET_S8_, symObjAddr: 0x2E94, symBinAddr: 0x1000055E4, symSize: 0x60 }
  - { offsetInCU: 0x7A3A, offset: 0x7A3A, size: 0x8, addend: 0x0, symName: __ZNSt3__113__unwrap_iterB7v160006IPPP4NodeNS_18__unwrap_iter_implIS4_Lb1EEELi0EEEDTclsrT0_8__unwrapclsr3stdE7declvalIT_EEEES8_, symObjAddr: 0x2F3C, symBinAddr: 0x10000568C, symSize: 0x24 }
  - { offsetInCU: 0x7A7E, offset: 0x7A7E, size: 0x8, addend: 0x0, symName: __ZNSt3__19make_pairB7v160006IPPP4NodeS4_EENS_4pairINS_18__unwrap_ref_decayIT_E4typeENS6_IT0_E4typeEEEOS7_OSA_, symObjAddr: 0x2F60, symBinAddr: 0x1000056B0, symSize: 0x38 }
  - { offsetInCU: 0x7ACD, offset: 0x7ACD, size: 0x8, addend: 0x0, symName: __ZNSt3__114__rewrap_rangeB7v160006IPPP4NodeS4_EET_S5_T0_, symObjAddr: 0x2F98, symBinAddr: 0x1000056E8, symSize: 0x2C }
  - { offsetInCU: 0x7B19, offset: 0x7B19, size: 0x8, addend: 0x0, symName: __ZNSt3__113__rewrap_iterB7v160006IPPP4NodeS4_NS_18__unwrap_iter_implIS4_Lb1EEEEET_S7_T0_, symObjAddr: 0x2FC4, symBinAddr: 0x100005714, symSize: 0x3C }
  - { offsetInCU: 0x7B6E, offset: 0x7B6E, size: 0x8, addend: 0x0, symName: __ZNSt3__119__copy_trivial_implB7v160006IPP4NodeS3_EENS_4pairIPT_PT0_EES6_S6_S8_, symObjAddr: 0x3000, symBinAddr: 0x100005750, symSize: 0x84 }
  - { offsetInCU: 0x7BD6, offset: 0x7BD6, size: 0x8, addend: 0x0, symName: __ZNSt3__19make_pairB7v160006IRPPP4NodeS4_EENS_4pairINS_18__unwrap_ref_decayIT_E4typeENS7_IT0_E4typeEEEOS8_OSB_, symObjAddr: 0x3084, symBinAddr: 0x1000057D4, symSize: 0x38 }
  - { offsetInCU: 0x7C78, offset: 0x7C78, size: 0x8, addend: 0x0, symName: __ZNSt3__18distanceB7v160006INS_13move_iteratorIPPP4NodeEEEENS_15iterator_traitsIT_E15difference_typeES8_S8_, symObjAddr: 0x3210, symBinAddr: 0x100005960, symSize: 0x3C }
  - { offsetInCU: 0x7CBB, offset: 0x7CBB, size: 0x8, addend: 0x0, symName: __ZNSt3__110__distanceB7v160006INS_13move_iteratorIPPP4NodeEEEENS_15iterator_traitsIT_E15difference_typeES8_S8_NS_26random_access_iterator_tagE, symObjAddr: 0x3348, symBinAddr: 0x100005A98, symSize: 0x30 }
  - { offsetInCU: 0x7D08, offset: 0x7D08, size: 0x8, addend: 0x0, symName: __ZNSt3__1miB7v160006IPPP4NodeS4_EEDTmicldtfp_4baseEcldtfp0_4baseEERKNS_13move_iteratorIT_EERKNS6_IT0_EE, symObjAddr: 0x3378, symBinAddr: 0x100005AC8, symSize: 0x48 }
  - { offsetInCU: 0x7D57, offset: 0x7D57, size: 0x8, addend: 0x0, symName: __ZNSt3__117__libcpp_allocateB7v160006Emm, symObjAddr: 0x359C, symBinAddr: 0x100005CEC, symSize: 0x28 }
  - { offsetInCU: 0x7D94, offset: 0x7D94, size: 0x8, addend: 0x0, symName: __ZNSt3__121__libcpp_operator_newB7v160006IJmEEEPvDpT_, symObjAddr: 0x35D8, symBinAddr: 0x100005D28, symSize: 0x24 }
  - { offsetInCU: 0x7DCD, offset: 0x7DCD, size: 0x8, addend: 0x0, symName: __ZNSt3__113move_backwardB7v160006IPPP4NodeS4_EET0_T_S6_S5_, symObjAddr: 0x35FC, symBinAddr: 0x100005D4C, symSize: 0x40 }
  - { offsetInCU: 0x7E27, offset: 0x7E27, size: 0x8, addend: 0x0, symName: __ZNSt3__115__move_backwardB7v160006INS_17_ClassicAlgPolicyEPPP4NodeS5_S5_EENS_4pairIT0_T2_EES7_T1_S8_, symObjAddr: 0x363C, symBinAddr: 0x100005D8C, symSize: 0x44 }
  - { offsetInCU: 0x7E93, offset: 0x7E93, size: 0x8, addend: 0x0, symName: __ZNSt3__123__dispatch_copy_or_moveB7v160006INS_17_ClassicAlgPolicyENS_20__move_backward_loopIS1_EENS_23__move_backward_trivialEPPP4NodeS8_S8_EENS_4pairIT2_T4_EESA_T3_SB_, symObjAddr: 0x3680, symBinAddr: 0x100005DD0, symSize: 0x44 }
  - { offsetInCU: 0x7F11, offset: 0x7F11, size: 0x8, addend: 0x0, symName: __ZNSt3__121__unwrap_and_dispatchB7v160006INS_10__overloadINS_20__move_backward_loopINS_17_ClassicAlgPolicyEEENS_23__move_backward_trivialEEEPPP4NodeSA_SA_Li0EEENS_4pairIT0_T2_EESC_T1_SD_, symObjAddr: 0x36C4, symBinAddr: 0x100005E14, symSize: 0xB4 }
  - { offsetInCU: 0x7FE5, offset: 0x7FE5, size: 0x8, addend: 0x0, symName: __ZNSt3__128__copy_backward_trivial_implB7v160006IPP4NodeS3_EENS_4pairIPT_PT0_EES6_S6_S8_, symObjAddr: 0x37C0, symBinAddr: 0x100005F10, symSize: 0x94 }
  - { offsetInCU: 0x804D, offset: 0x804D, size: 0x8, addend: 0x0, symName: __ZNSt3__19make_pairB7v160006IRPPP4NodeS5_EENS_4pairINS_18__unwrap_ref_decayIT_E4typeENS7_IT0_E4typeEEEOS8_OSB_, symObjAddr: 0x3854, symBinAddr: 0x100005FA4, symSize: 0x38 }
  - { offsetInCU: 0x809C, offset: 0x809C, size: 0x8, addend: 0x0, symName: __ZNSt3__13maxB7v160006ImNS_6__lessImmEEEERKT_S5_S5_T0_, symObjAddr: 0x38FC, symBinAddr: 0x10000604C, symSize: 0x54 }
  - { offsetInCU: 0x8131, offset: 0x8131, size: 0x8, addend: 0x0, symName: __ZNSt3__119__allocate_at_leastB7v160006INS_9allocatorIPP4NodeEEEENS_19__allocation_resultINS_16allocator_traitsIT_E7pointerEEERS8_m, symObjAddr: 0x3A94, symBinAddr: 0x1000061E4, symSize: 0x40 }
  - { offsetInCU: 0x8174, offset: 0x8174, size: 0x8, addend: 0x0, symName: __ZNSt3__19use_facetB7v160006INS_5ctypeIcEEEERKT_RKNS_6localeE, symObjAddr: 0x4208, symBinAddr: 0x100006958, symSize: 0x2C }
  - { offsetInCU: 0x8643, offset: 0x8643, size: 0x8, addend: 0x0, symName: __ZNSt3__112__to_addressB7v160006IP4NodeEEPT_S4_, symObjAddr: 0x4318, symBinAddr: 0x100006A68, symSize: 0x14 }
  - { offsetInCU: 0x8678, offset: 0x8678, size: 0x8, addend: 0x0, symName: __ZNSt3__116__pad_and_outputB7v160006IcNS_11char_traitsIcEEEENS_19ostreambuf_iteratorIT_T0_EES6_PKS4_S8_S8_RNS_8ios_baseES4_, symObjAddr: 0x4670, symBinAddr: 0x100006DC0, symSize: 0x240 }
  - { offsetInCU: 0x8747, offset: 0x8747, size: 0x8, addend: 0x0, symName: __ZNSt3__119__debug_db_insert_cB7v160006INS_12basic_stringIcNS_11char_traitsIcEENS_9allocatorIcEEEEEEvPT_, symObjAddr: 0x4B24, symBinAddr: 0x100007274, symSize: 0x10 }
  - { offsetInCU: 0x8778, offset: 0x8778, size: 0x8, addend: 0x0, symName: __ZNSt3__112__to_addressB7v160006IKcEEPT_S3_, symObjAddr: 0x4BF0, symBinAddr: 0x100007340, symSize: 0x14 }
  - { offsetInCU: 0x87E0, offset: 0x87E0, size: 0x8, addend: 0x0, symName: __ZNSt3__118__constexpr_strlenB7v160006EPKc, symObjAddr: 0x4E20, symBinAddr: 0x100007570, symSize: 0x24 }
  - { offsetInCU: 0x89B8, offset: 0x89B8, size: 0x8, addend: 0x0, symName: __ZSt28__throw_bad_array_new_lengthB7v160006v, symObjAddr: 0x3568, symBinAddr: 0x100005CB8, symSize: 0x34 }
  - { offsetInCU: 0xB174, offset: 0xB174, size: 0x8, addend: 0x0, symName: __Z10DeleteNodeP4Nodei, symObjAddr: 0x0, symBinAddr: 0x100002750, symSize: 0x40 }
  - { offsetInCU: 0xB1D5, offset: 0xB1D5, size: 0x8, addend: 0x0, symName: __Z10LevelOrderP4Node, symObjAddr: 0x40, symBinAddr: 0x100002790, symSize: 0x164 }
  - { offsetInCU: 0xB256, offset: 0xB256, size: 0x8, addend: 0x0, symName: __ZNSt3__15queueIP4NodeNS_5dequeIS2_NS_9allocatorIS2_EEEEEC1B7v160006Ev, symObjAddr: 0x1A4, symBinAddr: 0x1000028F4, symSize: 0x2C }
  - { offsetInCU: 0xB280, offset: 0xB280, size: 0x8, addend: 0x0, symName: __ZNSt3__15queueIP4NodeNS_5dequeIS2_NS_9allocatorIS2_EEEEE4pushB7v160006ERKS2_, symObjAddr: 0x1D0, symBinAddr: 0x100002920, symSize: 0x2C }
  - { offsetInCU: 0xB2B5, offset: 0xB2B5, size: 0x8, addend: 0x0, symName: __ZNKSt3__15queueIP4NodeNS_5dequeIS2_NS_9allocatorIS2_EEEEE5emptyB7v160006Ev, symObjAddr: 0x1FC, symBinAddr: 0x10000294C, symSize: 0x28 }
  - { offsetInCU: 0xB2DB, offset: 0xB2DB, size: 0x8, addend: 0x0, symName: __ZNSt3__15queueIP4NodeNS_5dequeIS2_NS_9allocatorIS2_EEEEE5frontB7v160006Ev, symObjAddr: 0x224, symBinAddr: 0x100002974, symSize: 0x24 }
  - { offsetInCU: 0xB301, offset: 0xB301, size: 0x8, addend: 0x0, symName: __ZNSt3__113basic_ostreamIcNS_11char_traitsIcEEElsB7v160006EPFRS3_S4_E, symObjAddr: 0x248, symBinAddr: 0x100002998, symSize: 0x2C }
  - { offsetInCU: 0xB335, offset: 0xB335, size: 0x8, addend: 0x0, symName: __ZNSt3__15queueIP4NodeNS_5dequeIS2_NS_9allocatorIS2_EEEEE3popB7v160006Ev, symObjAddr: 0x2CC, symBinAddr: 0x100002A1C, symSize: 0x24 }
  - { offsetInCU: 0xB35B, offset: 0xB35B, size: 0x8, addend: 0x0, symName: __ZNSt3__15queueIP4NodeNS_5dequeIS2_NS_9allocatorIS2_EEEEED1Ev, symObjAddr: 0x2F0, symBinAddr: 0x100002A40, symSize: 0x2C }
  - { offsetInCU: 0xB387, offset: 0xB387, size: 0x8, addend: 0x0, symName: __Z9isBSTUtilP4Nodeii, symObjAddr: 0x31C, symBinAddr: 0x100002A6C, symSize: 0xF4 }
  - { offsetInCU: 0xB3CF, offset: 0xB3CF, size: 0x8, addend: 0x0, symName: __Z5isBSTP4Node, symObjAddr: 0x410, symBinAddr: 0x100002B60, symSize: 0x30 }
  - { offsetInCU: 0xB3FC, offset: 0xB3FC, size: 0x8, addend: 0x0, symName: __Z16InOrderTraversalP4Node, symObjAddr: 0x440, symBinAddr: 0x100002B90, symSize: 0x7C }
  - { offsetInCU: 0xB425, offset: 0xB425, size: 0x8, addend: 0x0, symName: __Z25iterativeInorderTraversalP4Node, symObjAddr: 0x504, symBinAddr: 0x100002C54, symSize: 0x138 }
  - { offsetInCU: 0xB498, offset: 0xB498, size: 0x8, addend: 0x0, symName: __ZNSt3__15stackIP4NodeNS_5dequeIS2_NS_9allocatorIS2_EEEEEC1B7v160006Ev, symObjAddr: 0x63C, symBinAddr: 0x100002D8C, symSize: 0x2C }
  - { offsetInCU: 0xB4C2, offset: 0xB4C2, size: 0x8, addend: 0x0, symName: __ZNKSt3__15stackIP4NodeNS_5dequeIS2_NS_9allocatorIS2_EEEEE5emptyB7v160006Ev, symObjAddr: 0x668, symBinAddr: 0x100002DB8, symSize: 0x28 }
  - { offsetInCU: 0xB4E8, offset: 0xB4E8, size: 0x8, addend: 0x0, symName: __ZNSt3__15stackIP4NodeNS_5dequeIS2_NS_9allocatorIS2_EEEEE3topB7v160006Ev, symObjAddr: 0x690, symBinAddr: 0x100002DE0, symSize: 0x24 }
  - { offsetInCU: 0xB50E, offset: 0xB50E, size: 0x8, addend: 0x0, symName: __ZNSt3__15stackIP4NodeNS_5dequeIS2_NS_9allocatorIS2_EEEEE3popB7v160006Ev, symObjAddr: 0x6B4, symBinAddr: 0x100002E04, symSize: 0x24 }
  - { offsetInCU: 0xB534, offset: 0xB534, size: 0x8, addend: 0x0, symName: __ZNSt3__15stackIP4NodeNS_5dequeIS2_NS_9allocatorIS2_EEEEE4pushB7v160006ERKS2_, symObjAddr: 0x6D8, symBinAddr: 0x100002E28, symSize: 0x2C }
  - { offsetInCU: 0xB568, offset: 0xB568, size: 0x8, addend: 0x0, symName: __ZNSt3__15stackIP4NodeNS_5dequeIS2_NS_9allocatorIS2_EEEEED1Ev, symObjAddr: 0x704, symBinAddr: 0x100002E54, symSize: 0x2C }
  - { offsetInCU: 0xB594, offset: 0xB594, size: 0x8, addend: 0x0, symName: _main, symObjAddr: 0x730, symBinAddr: 0x100002E80, symSize: 0x1D0 }
  - { offsetInCU: 0xB5F5, offset: 0xB5F5, size: 0x8, addend: 0x0, symName: __ZNSt3__15queueIP4NodeNS_5dequeIS2_NS_9allocatorIS2_EEEEED2Ev, symObjAddr: 0x900, symBinAddr: 0x100003050, symSize: 0x2C }
  - { offsetInCU: 0xB622, offset: 0xB622, size: 0x8, addend: 0x0, symName: __ZNSt3__15dequeIP4NodeNS_9allocatorIS2_EEED1B7v160006Ev, symObjAddr: 0x92C, symBinAddr: 0x10000307C, symSize: 0x2C }
  - { offsetInCU: 0xB64C, offset: 0xB64C, size: 0x8, addend: 0x0, symName: __ZNSt3__15dequeIP4NodeNS_9allocatorIS2_EEED2B7v160006Ev, symObjAddr: 0x958, symBinAddr: 0x1000030A8, symSize: 0x9C }
  - { offsetInCU: 0xB6A3, offset: 0xB6A3, size: 0x8, addend: 0x0, symName: __ZNSt3__15dequeIP4NodeNS_9allocatorIS2_EEE5clearEv, symObjAddr: 0x9F4, symBinAddr: 0x100003144, symSize: 0x180 }
  - { offsetInCU: 0xB6FE, offset: 0xB6FE, size: 0x8, addend: 0x0, symName: __ZNSt3__114__split_bufferIPP4NodeNS_9allocatorIS3_EEE5beginB7v160006Ev, symObjAddr: 0xB74, symBinAddr: 0x1000032C4, symSize: 0x18 }
  - { offsetInCU: 0xB724, offset: 0xB724, size: 0x8, addend: 0x0, symName: __ZNSt3__114__split_bufferIPP4NodeNS_9allocatorIS3_EEE3endB7v160006Ev, symObjAddr: 0xB8C, symBinAddr: 0x1000032DC, symSize: 0x18 }
  - { offsetInCU: 0xB74A, offset: 0xB74A, size: 0x8, addend: 0x0, symName: __ZNSt3__116allocator_traitsINS_9allocatorIP4NodeEEE10deallocateB7v160006ERS4_PS3_m, symObjAddr: 0xBA4, symBinAddr: 0x1000032F4, symSize: 0x34 }
  - { offsetInCU: 0xB78C, offset: 0xB78C, size: 0x8, addend: 0x0, symName: __ZNSt3__15dequeIP4NodeNS_9allocatorIS2_EEE7__allocB7v160006Ev, symObjAddr: 0xBD8, symBinAddr: 0x100003328, symSize: 0x28 }
  - { offsetInCU: 0xB7B2, offset: 0xB7B2, size: 0x8, addend: 0x0, symName: __ZNSt3__114__split_bufferIPP4NodeNS_9allocatorIS3_EEED1Ev, symObjAddr: 0xC00, symBinAddr: 0x100003350, symSize: 0x2C }
  - { offsetInCU: 0xB7DE, offset: 0xB7DE, size: 0x8, addend: 0x0, symName: __ZNSt3__15dequeIP4NodeNS_9allocatorIS2_EEE5beginB7v160006Ev, symObjAddr: 0xC2C, symBinAddr: 0x10000337C, symSize: 0xB8 }
  - { offsetInCU: 0xB813, offset: 0xB813, size: 0x8, addend: 0x0, symName: __ZNSt3__15dequeIP4NodeNS_9allocatorIS2_EEE3endB7v160006Ev, symObjAddr: 0xCE4, symBinAddr: 0x100003434, symSize: 0xBC }
  - { offsetInCU: 0xB857, offset: 0xB857, size: 0x8, addend: 0x0, symName: __ZNSt3__116allocator_traitsINS_9allocatorIP4NodeEEE7destroyB7v160006IS3_vEEvRS4_PT_, symObjAddr: 0xDE0, symBinAddr: 0x100003530, symSize: 0x2C }
  - { offsetInCU: 0xB894, offset: 0xB894, size: 0x8, addend: 0x0, symName: __ZNKSt3__116__deque_iteratorIP4NodePS2_RS2_PS3_lLl512EEdeB7v160006Ev, symObjAddr: 0xE0C, symBinAddr: 0x10000355C, symSize: 0x18 }
  - { offsetInCU: 0xB8BA, offset: 0xB8BA, size: 0x8, addend: 0x0, symName: __ZNSt3__116__deque_iteratorIP4NodePS2_RS2_PS3_lLl512EEppB7v160006Ev, symObjAddr: 0xE24, symBinAddr: 0x100003574, symSize: 0x70 }
  - { offsetInCU: 0xB8E0, offset: 0xB8E0, size: 0x8, addend: 0x0, symName: __ZNSt3__15dequeIP4NodeNS_9allocatorIS2_EEE6__sizeB7v160006Ev, symObjAddr: 0xE94, symBinAddr: 0x1000035E4, symSize: 0x28 }
  - { offsetInCU: 0xB906, offset: 0xB906, size: 0x8, addend: 0x0, symName: __ZNKSt3__114__split_bufferIPP4NodeNS_9allocatorIS3_EEE4sizeB7v160006Ev, symObjAddr: 0xEBC, symBinAddr: 0x10000360C, symSize: 0x28 }
  - { offsetInCU: 0xB92C, offset: 0xB92C, size: 0x8, addend: 0x0, symName: __ZNSt3__114__split_bufferIPP4NodeNS_9allocatorIS3_EEE5frontB7v160006Ev, symObjAddr: 0xEE4, symBinAddr: 0x100003634, symSize: 0x18 }
  - { offsetInCU: 0xB952, offset: 0xB952, size: 0x8, addend: 0x0, symName: __ZNSt3__114__split_bufferIPP4NodeNS_9allocatorIS3_EEE9pop_frontB7v160006Ev, symObjAddr: 0xEFC, symBinAddr: 0x10000364C, symSize: 0x2C }
  - { offsetInCU: 0xB978, offset: 0xB978, size: 0x8, addend: 0x0, symName: __ZNKSt3__114__split_bufferIPP4NodeNS_9allocatorIS3_EEE5emptyB7v160006Ev, symObjAddr: 0xF28, symBinAddr: 0x100003678, symSize: 0x28 }
  - { offsetInCU: 0xB99E, offset: 0xB99E, size: 0x8, addend: 0x0, symName: __ZNSt3__116__deque_iteratorIP4NodePS2_RS2_PS3_lLl512EEC1B7v160006ES5_S3_, symObjAddr: 0xF50, symBinAddr: 0x1000036A0, symSize: 0x3C }
  - { offsetInCU: 0xB9E6, offset: 0xB9E6, size: 0x8, addend: 0x0, symName: __ZNSt3__116__deque_iteratorIP4NodePS2_RS2_PS3_lLl512EEC2B7v160006ES5_S3_, symObjAddr: 0xF8C, symBinAddr: 0x1000036DC, symSize: 0x2C }
  - { offsetInCU: 0xBA2E, offset: 0xBA2E, size: 0x8, addend: 0x0, symName: __ZNKSt3__15dequeIP4NodeNS_9allocatorIS2_EEE4sizeB7v160006Ev, symObjAddr: 0xFB8, symBinAddr: 0x100003708, symSize: 0x28 }
  - { offsetInCU: 0xBA54, offset: 0xBA54, size: 0x8, addend: 0x0, symName: __ZNKSt3__15dequeIP4NodeNS_9allocatorIS2_EEE6__sizeB7v160006Ev, symObjAddr: 0xFE0, symBinAddr: 0x100003730, symSize: 0x28 }
  - { offsetInCU: 0xBA7A, offset: 0xBA7A, size: 0x8, addend: 0x0, symName: __ZNKSt3__117__compressed_pairImNS_9allocatorIP4NodeEEE5firstB7v160006Ev, symObjAddr: 0x1008, symBinAddr: 0x100003758, symSize: 0x24 }
  - { offsetInCU: 0xBAA0, offset: 0xBAA0, size: 0x8, addend: 0x0, symName: __ZNKSt3__122__compressed_pair_elemImLi0ELb0EE5__getB7v160006Ev, symObjAddr: 0x102C, symBinAddr: 0x10000377C, symSize: 0x14 }
  - { offsetInCU: 0xBAC6, offset: 0xBAC6, size: 0x8, addend: 0x0, symName: __ZNSt3__19allocatorIP4NodeE7destroyB7v160006EPS2_, symObjAddr: 0x1070, symBinAddr: 0x1000037C0, symSize: 0x14 }
  - { offsetInCU: 0xBAFA, offset: 0xBAFA, size: 0x8, addend: 0x0, symName: __ZNSt3__117__compressed_pairImNS_9allocatorIP4NodeEEE5firstB7v160006Ev, symObjAddr: 0x1084, symBinAddr: 0x1000037D4, symSize: 0x24 }
  - { offsetInCU: 0xBB20, offset: 0xBB20, size: 0x8, addend: 0x0, symName: __ZNSt3__122__compressed_pair_elemImLi0ELb0EE5__getB7v160006Ev, symObjAddr: 0x10A8, symBinAddr: 0x1000037F8, symSize: 0x14 }
  - { offsetInCU: 0xBB46, offset: 0xBB46, size: 0x8, addend: 0x0, symName: __ZNSt3__114__split_bufferIPP4NodeNS_9allocatorIS3_EEE19__destruct_at_beginB7v160006EPS3_, symObjAddr: 0x10BC, symBinAddr: 0x10000380C, symSize: 0x2C }
  - { offsetInCU: 0xBB7A, offset: 0xBB7A, size: 0x8, addend: 0x0, symName: __ZNSt3__114__split_bufferIPP4NodeNS_9allocatorIS3_EEE19__destruct_at_beginEPS3_NS_17integral_constantIbLb1EEE, symObjAddr: 0x10E8, symBinAddr: 0x100003838, symSize: 0x20 }
  - { offsetInCU: 0xBBBA, offset: 0xBBBA, size: 0x8, addend: 0x0, symName: __ZNSt3__19allocatorIP4NodeE10deallocateB7v160006EPS2_m, symObjAddr: 0x1108, symBinAddr: 0x100003858, symSize: 0x40 }
  - { offsetInCU: 0xBBFC, offset: 0xBBFC, size: 0x8, addend: 0x0, symName: __ZNSt3__117__compressed_pairImNS_9allocatorIP4NodeEEE6secondB7v160006Ev, symObjAddr: 0x11C4, symBinAddr: 0x100003914, symSize: 0x24 }
  - { offsetInCU: 0xBC22, offset: 0xBC22, size: 0x8, addend: 0x0, symName: __ZNSt3__122__compressed_pair_elemINS_9allocatorIP4NodeEELi1ELb1EE5__getB7v160006Ev, symObjAddr: 0x11E8, symBinAddr: 0x100003938, symSize: 0x14 }
  - { offsetInCU: 0xBC48, offset: 0xBC48, size: 0x8, addend: 0x0, symName: __ZNSt3__114__split_bufferIPP4NodeNS_9allocatorIS3_EEED2Ev, symObjAddr: 0x11FC, symBinAddr: 0x10000394C, symSize: 0x8C }
  - { offsetInCU: 0xBC74, offset: 0xBC74, size: 0x8, addend: 0x0, symName: __ZNSt3__114__split_bufferIPP4NodeNS_9allocatorIS3_EEE5clearB7v160006Ev, symObjAddr: 0x1288, symBinAddr: 0x1000039D8, symSize: 0x28 }
  - { offsetInCU: 0xBC9A, offset: 0xBC9A, size: 0x8, addend: 0x0, symName: __ZNSt3__116allocator_traitsINS_9allocatorIPP4NodeEEE10deallocateB7v160006ERS5_PS4_m, symObjAddr: 0x12B0, symBinAddr: 0x100003A00, symSize: 0x34 }
  - { offsetInCU: 0xBCDC, offset: 0xBCDC, size: 0x8, addend: 0x0, symName: __ZNSt3__114__split_bufferIPP4NodeNS_9allocatorIS3_EEE7__allocB7v160006Ev, symObjAddr: 0x12E4, symBinAddr: 0x100003A34, symSize: 0x28 }
  - { offsetInCU: 0xBD02, offset: 0xBD02, size: 0x8, addend: 0x0, symName: __ZNKSt3__114__split_bufferIPP4NodeNS_9allocatorIS3_EEE8capacityB7v160006Ev, symObjAddr: 0x130C, symBinAddr: 0x100003A5C, symSize: 0x40 }
  - { offsetInCU: 0xBD28, offset: 0xBD28, size: 0x8, addend: 0x0, symName: __ZNSt3__114__split_bufferIPP4NodeNS_9allocatorIS3_EEE17__destruct_at_endB7v160006EPS3_, symObjAddr: 0x134C, symBinAddr: 0x100003A9C, symSize: 0x2C }
  - { offsetInCU: 0xBD5C, offset: 0xBD5C, size: 0x8, addend: 0x0, symName: __ZNSt3__114__split_bufferIPP4NodeNS_9allocatorIS3_EEE17__destruct_at_endB7v160006EPS3_NS_17integral_constantIbLb0EEE, symObjAddr: 0x1378, symBinAddr: 0x100003AC8, symSize: 0x80 }
  - { offsetInCU: 0xBD9C, offset: 0xBD9C, size: 0x8, addend: 0x0, symName: __ZNSt3__116allocator_traitsINS_9allocatorIPP4NodeEEE7destroyB7v160006IS4_vEEvRS5_PT_, symObjAddr: 0x13F8, symBinAddr: 0x100003B48, symSize: 0x2C }
  - { offsetInCU: 0xBDD9, offset: 0xBDD9, size: 0x8, addend: 0x0, symName: __ZNSt3__19allocatorIPP4NodeE7destroyB7v160006EPS3_, symObjAddr: 0x1438, symBinAddr: 0x100003B88, symSize: 0x14 }
  - { offsetInCU: 0xBE0D, offset: 0xBE0D, size: 0x8, addend: 0x0, symName: __ZNSt3__19allocatorIPP4NodeE10deallocateB7v160006EPS3_m, symObjAddr: 0x144C, symBinAddr: 0x100003B9C, symSize: 0x40 }
  - { offsetInCU: 0xBE4F, offset: 0xBE4F, size: 0x8, addend: 0x0, symName: __ZNSt3__117__compressed_pairIPPP4NodeNS_9allocatorIS3_EEE6secondB7v160006Ev, symObjAddr: 0x148C, symBinAddr: 0x100003BDC, symSize: 0x24 }
  - { offsetInCU: 0xBE75, offset: 0xBE75, size: 0x8, addend: 0x0, symName: __ZNSt3__122__compressed_pair_elemINS_9allocatorIPP4NodeEELi1ELb1EE5__getB7v160006Ev, symObjAddr: 0x14B0, symBinAddr: 0x100003C00, symSize: 0x14 }
  - { offsetInCU: 0xBE9B, offset: 0xBE9B, size: 0x8, addend: 0x0, symName: __ZNKSt3__114__split_bufferIPP4NodeNS_9allocatorIS3_EEE9__end_capB7v160006Ev, symObjAddr: 0x14C4, symBinAddr: 0x100003C14, symSize: 0x28 }
  - { offsetInCU: 0xBEC1, offset: 0xBEC1, size: 0x8, addend: 0x0, symName: __ZNKSt3__117__compressed_pairIPPP4NodeNS_9allocatorIS3_EEE5firstB7v160006Ev, symObjAddr: 0x14EC, symBinAddr: 0x100003C3C, symSize: 0x24 }
  - { offsetInCU: 0xBEE7, offset: 0xBEE7, size: 0x8, addend: 0x0, symName: __ZNKSt3__122__compressed_pair_elemIPPP4NodeLi0ELb0EE5__getB7v160006Ev, symObjAddr: 0x1510, symBinAddr: 0x100003C60, symSize: 0x14 }
  - { offsetInCU: 0xBF0D, offset: 0xBF0D, size: 0x8, addend: 0x0, symName: __ZNSt3__15stackIP4NodeNS_5dequeIS2_NS_9allocatorIS2_EEEEED2Ev, symObjAddr: 0x1524, symBinAddr: 0x100003C74, symSize: 0x2C }
  - { offsetInCU: 0xBF39, offset: 0xBF39, size: 0x8, addend: 0x0, symName: __ZNSt3__15queueIP4NodeNS_5dequeIS2_NS_9allocatorIS2_EEEEEC2B7v160006Ev, symObjAddr: 0x1550, symBinAddr: 0x100003CA0, symSize: 0x2C }
  - { offsetInCU: 0xBF63, offset: 0xBF63, size: 0x8, addend: 0x0, symName: __ZNSt3__15dequeIP4NodeNS_9allocatorIS2_EEEC1B7v160006Ev, symObjAddr: 0x157C, symBinAddr: 0x100003CCC, symSize: 0x2C }
  - { offsetInCU: 0xBF8D, offset: 0xBF8D, size: 0x8, addend: 0x0, symName: __ZNSt3__15dequeIP4NodeNS_9allocatorIS2_EEEC2B7v160006Ev, symObjAddr: 0x15A8, symBinAddr: 0x100003CF8, symSize: 0x50 }
  - { offsetInCU: 0xBFB7, offset: 0xBFB7, size: 0x8, addend: 0x0, symName: __ZNSt3__114__split_bufferIPP4NodeNS_9allocatorIS3_EEEC1Ev, symObjAddr: 0x15F8, symBinAddr: 0x100003D48, symSize: 0x2C }
  - { offsetInCU: 0xBFED, offset: 0xBFED, size: 0x8, addend: 0x0, symName: __ZNSt3__117__compressed_pairImNS_9allocatorIP4NodeEEEC1B7v160006IiNS_18__default_init_tagEEEOT_OT0_, symObjAddr: 0x1624, symBinAddr: 0x100003D74, symSize: 0x3C }
  - { offsetInCU: 0xC045, offset: 0xC045, size: 0x8, addend: 0x0, symName: __ZNSt3__114__split_bufferIPP4NodeNS_9allocatorIS3_EEEC2Ev, symObjAddr: 0x1660, symBinAddr: 0x100003DB0, symSize: 0x50 }
  - { offsetInCU: 0xC076, offset: 0xC076, size: 0x8, addend: 0x0, symName: __ZNSt3__117__compressed_pairIPPP4NodeNS_9allocatorIS3_EEEC1B7v160006IDnNS_18__default_init_tagEEEOT_OT0_, symObjAddr: 0x16B0, symBinAddr: 0x100003E00, symSize: 0x3C }
  - { offsetInCU: 0xC0CE, offset: 0xC0CE, size: 0x8, addend: 0x0, symName: __ZNSt3__117__compressed_pairIPPP4NodeNS_9allocatorIS3_EEEC2B7v160006IDnNS_18__default_init_tagEEEOT_OT0_, symObjAddr: 0x16EC, symBinAddr: 0x100003E3C, symSize: 0x40 }
  - { offsetInCU: 0xC126, offset: 0xC126, size: 0x8, addend: 0x0, symName: __ZNSt3__122__compressed_pair_elemIPPP4NodeLi0ELb0EEC2B7v160006IDnvEEOT_, symObjAddr: 0x172C, symBinAddr: 0x100003E7C, symSize: 0x1C }
  - { offsetInCU: 0xC168, offset: 0xC168, size: 0x8, addend: 0x0, symName: __ZNSt3__122__compressed_pair_elemINS_9allocatorIPP4NodeEELi1ELb1EEC2B7v160006ENS_18__default_init_tagE, symObjAddr: 0x1748, symBinAddr: 0x100003E98, symSize: 0x2C }
  - { offsetInCU: 0xC19C, offset: 0xC19C, size: 0x8, addend: 0x0, symName: __ZNSt3__19allocatorIPP4NodeEC2B7v160006Ev, symObjAddr: 0x1774, symBinAddr: 0x100003EC4, symSize: 0x2C }
  - { offsetInCU: 0xC1C6, offset: 0xC1C6, size: 0x8, addend: 0x0, symName: __ZNSt3__116__non_trivial_ifILb1ENS_9allocatorIPP4NodeEEEC2B7v160006Ev, symObjAddr: 0x17A0, symBinAddr: 0x100003EF0, symSize: 0x14 }
  - { offsetInCU: 0xC1F0, offset: 0xC1F0, size: 0x8, addend: 0x0, symName: __ZNSt3__117__compressed_pairImNS_9allocatorIP4NodeEEEC2B7v160006IiNS_18__default_init_tagEEEOT_OT0_, symObjAddr: 0x17B4, symBinAddr: 0x100003F04, symSize: 0x40 }
  - { offsetInCU: 0xC248, offset: 0xC248, size: 0x8, addend: 0x0, symName: __ZNSt3__122__compressed_pair_elemImLi0ELb0EEC2B7v160006IivEEOT_, symObjAddr: 0x17F4, symBinAddr: 0x100003F44, symSize: 0x24 }
  - { offsetInCU: 0xC28A, offset: 0xC28A, size: 0x8, addend: 0x0, symName: __ZNSt3__122__compressed_pair_elemINS_9allocatorIP4NodeEELi1ELb1EEC2B7v160006ENS_18__default_init_tagE, symObjAddr: 0x1818, symBinAddr: 0x100003F68, symSize: 0x2C }
  - { offsetInCU: 0xC2BE, offset: 0xC2BE, size: 0x8, addend: 0x0, symName: __ZNSt3__19allocatorIP4NodeEC2B7v160006Ev, symObjAddr: 0x1844, symBinAddr: 0x100003F94, symSize: 0x2C }
  - { offsetInCU: 0xC2E8, offset: 0xC2E8, size: 0x8, addend: 0x0, symName: __ZNSt3__116__non_trivial_ifILb1ENS_9allocatorIP4NodeEEEC2B7v160006Ev, symObjAddr: 0x1870, symBinAddr: 0x100003FC0, symSize: 0x14 }
  - { offsetInCU: 0xC312, offset: 0xC312, size: 0x8, addend: 0x0, symName: __ZNSt3__15dequeIP4NodeNS_9allocatorIS2_EEE9push_backERKS2_, symObjAddr: 0x1884, symBinAddr: 0x100003FD4, symSize: 0xA0 }
  - { offsetInCU: 0xC358, offset: 0xC358, size: 0x8, addend: 0x0, symName: __ZNKSt3__15dequeIP4NodeNS_9allocatorIS2_EEE12__back_spareB7v160006Ev, symObjAddr: 0x1924, symBinAddr: 0x100004074, symSize: 0x54 }
  - { offsetInCU: 0xC37E, offset: 0xC37E, size: 0x8, addend: 0x0, symName: __ZNSt3__15dequeIP4NodeNS_9allocatorIS2_EEE19__add_back_capacityEv, symObjAddr: 0x1978, symBinAddr: 0x1000040C8, symSize: 0x314 }
  - { offsetInCU: 0xC436, offset: 0xC436, size: 0x8, addend: 0x0, symName: __ZNSt3__116allocator_traitsINS_9allocatorIP4NodeEEE9constructB7v160006IS3_JRKS3_EvEEvRS4_PT_DpOT0_, symObjAddr: 0x1C8C, symBinAddr: 0x1000043DC, symSize: 0x34 }
  - { offsetInCU: 0xC48D, offset: 0xC48D, size: 0x8, addend: 0x0, symName: __ZNKSt3__15dequeIP4NodeNS_9allocatorIS2_EEE10__capacityB7v160006Ev, symObjAddr: 0x1CC0, symBinAddr: 0x100004410, symSize: 0x60 }
  - { offsetInCU: 0xC4B3, offset: 0xC4B3, size: 0x8, addend: 0x0, symName: __ZNKSt3__15dequeIP4NodeNS_9allocatorIS2_EEE13__front_spareB7v160006Ev, symObjAddr: 0x1D20, symBinAddr: 0x100004470, symSize: 0x18 }
  - { offsetInCU: 0xC4D9, offset: 0xC4D9, size: 0x8, addend: 0x0, symName: __ZNSt3__114__split_bufferIPP4NodeNS_9allocatorIS3_EEE9push_backB7v160006ERKS3_, symObjAddr: 0x1D38, symBinAddr: 0x100004488, symSize: 0x260 }
  - { offsetInCU: 0xC552, offset: 0xC552, size: 0x8, addend: 0x0, symName: __ZNKSt3__114__split_bufferIPP4NodeNS_9allocatorIS3_EEE12__back_spareB7v160006Ev, symObjAddr: 0x1F98, symBinAddr: 0x1000046E8, symSize: 0x40 }
  - { offsetInCU: 0xC578, offset: 0xC578, size: 0x8, addend: 0x0, symName: __ZNSt3__114__split_bufferIPP4NodeNS_9allocatorIS3_EEE9push_backEOS3_, symObjAddr: 0x1FD8, symBinAddr: 0x100004728, symSize: 0x260 }
  - { offsetInCU: 0xC5F1, offset: 0xC5F1, size: 0x8, addend: 0x0, symName: __ZNSt3__116allocator_traitsINS_9allocatorIP4NodeEEE8allocateB7v160006ERS4_m, symObjAddr: 0x2238, symBinAddr: 0x100004988, symSize: 0x2C }
  - { offsetInCU: 0xC624, offset: 0xC624, size: 0x8, addend: 0x0, symName: __ZNSt3__114__split_bufferIPP4NodeNS_9allocatorIS3_EEE10push_frontEOS3_, symObjAddr: 0x2264, symBinAddr: 0x1000049B4, symSize: 0x25C }
  - { offsetInCU: 0xC69D, offset: 0xC69D, size: 0x8, addend: 0x0, symName: __ZNSt3__114__split_bufferIPP4NodeRNS_9allocatorIS3_EEEC1EmmS6_, symObjAddr: 0x24EC, symBinAddr: 0x100004C3C, symSize: 0x44 }
  - { offsetInCU: 0xC6F8, offset: 0xC6F8, size: 0x8, addend: 0x0, symName: __ZNSt3__122__allocator_destructorINS_9allocatorIP4NodeEEEC1B7v160006ERS4_m, symObjAddr: 0x2530, symBinAddr: 0x100004C80, symSize: 0x3C }
  - { offsetInCU: 0xC7BB, offset: 0xC7BB, size: 0x8, addend: 0x0, symName: __ZNSt3__110unique_ptrIPP4NodeNS_22__allocator_destructorINS_9allocatorIS2_EEEEEC1B7v160006ILb1EvEES3_NS_16__dependent_typeINS_27__unique_ptr_deleter_sfinaeIS7_EEXT_EE20__good_rval_ref_typeE, symObjAddr: 0x256C, symBinAddr: 0x100004CBC, symSize: 0x3C }
  - { offsetInCU: 0xC80C, offset: 0xC80C, size: 0x8, addend: 0x0, symName: __ZNSt3__114__split_bufferIPP4NodeRNS_9allocatorIS3_EEE9push_backEOS3_, symObjAddr: 0x25A8, symBinAddr: 0x100004CF8, symSize: 0x260 }
  - { offsetInCU: 0xC885, offset: 0xC885, size: 0x8, addend: 0x0, symName: __ZNKSt3__110unique_ptrIPP4NodeNS_22__allocator_destructorINS_9allocatorIS2_EEEEE3getB7v160006Ev, symObjAddr: 0x2808, symBinAddr: 0x100004F58, symSize: 0x28 }
  - { offsetInCU: 0xC8AB, offset: 0xC8AB, size: 0x8, addend: 0x0, symName: __ZNSt3__110unique_ptrIPP4NodeNS_22__allocator_destructorINS_9allocatorIS2_EEEEE7releaseB7v160006Ev, symObjAddr: 0x2830, symBinAddr: 0x100004F80, symSize: 0x44 }
  - { offsetInCU: 0xC8E0, offset: 0xC8E0, size: 0x8, addend: 0x0, symName: __ZNSt3__114__split_bufferIPP4NodeRNS_9allocatorIS3_EEE10push_frontERKS3_, symObjAddr: 0x2874, symBinAddr: 0x100004FC4, symSize: 0x25C }
  - { offsetInCU: 0xC959, offset: 0xC959, size: 0x8, addend: 0x0, symName: __ZNSt3__114__split_bufferIPP4NodeNS_9allocatorIS3_EEE9__end_capB7v160006Ev, symObjAddr: 0x2B0C, symBinAddr: 0x10000525C, symSize: 0x28 }
  - { offsetInCU: 0xC97F, offset: 0xC97F, size: 0x8, addend: 0x0, symName: __ZNSt3__114__split_bufferIPP4NodeRNS_9allocatorIS3_EEE9__end_capB7v160006Ev, symObjAddr: 0x2B34, symBinAddr: 0x100005284, symSize: 0x28 }
  - { offsetInCU: 0xC9A5, offset: 0xC9A5, size: 0x8, addend: 0x0, symName: __ZNSt3__110unique_ptrIPP4NodeNS_22__allocator_destructorINS_9allocatorIS2_EEEEED1B7v160006Ev, symObjAddr: 0x2B5C, symBinAddr: 0x1000052AC, symSize: 0x2C }
  - { offsetInCU: 0xC9CF, offset: 0xC9CF, size: 0x8, addend: 0x0, symName: __ZNSt3__114__split_bufferIPP4NodeRNS_9allocatorIS3_EEED1Ev, symObjAddr: 0x2B88, symBinAddr: 0x1000052D8, symSize: 0x2C }
  - { offsetInCU: 0xC9FB, offset: 0xC9FB, size: 0x8, addend: 0x0, symName: __ZNSt3__114__split_bufferIPP4NodeRNS_9allocatorIS3_EEE18__construct_at_endINS_13move_iteratorIPS3_EEEENS_9enable_ifIXsr27__is_cpp17_forward_iteratorIT_EE5valueEvE4typeESD_SD_, symObjAddr: 0x2BF4, symBinAddr: 0x100005344, symSize: 0xFC }
  - { offsetInCU: 0xCA57, offset: 0xCA57, size: 0x8, addend: 0x0, symName: __ZNSt3__113move_iteratorIPPP4NodeEC1B7v160006ES4_, symObjAddr: 0x2CF0, symBinAddr: 0x100005440, symSize: 0x34 }
  - { offsetInCU: 0xCA8F, offset: 0xCA8F, size: 0x8, addend: 0x0, symName: __ZNSt3__116allocator_traitsINS_9allocatorIPP4NodeEEE9constructB7v160006IS4_JRKS4_EvEEvRS5_PT_DpOT0_, symObjAddr: 0x2D24, symBinAddr: 0x100005474, symSize: 0x34 }
  - { offsetInCU: 0xCB09, offset: 0xCB09, size: 0x8, addend: 0x0, symName: __ZNKSt3__114__move_trivialclB7v160006IPP4NodeS4_Li0EEENS_4pairIPT_PT0_EES7_S7_S9_, symObjAddr: 0x2EF4, symBinAddr: 0x100005644, symSize: 0x48 }
  - { offsetInCU: 0xCB76, offset: 0xCB76, size: 0x8, addend: 0x0, symName: __ZNSt3__14pairIPPP4NodeS4_EC1B7v160006IRS4_S4_LPv0EEEOT_OT0_, symObjAddr: 0x30BC, symBinAddr: 0x10000580C, symSize: 0x3C }
  - { offsetInCU: 0xCBD4, offset: 0xCBD4, size: 0x8, addend: 0x0, symName: __ZNSt3__14pairIPPP4NodeS4_EC2B7v160006IRS4_S4_LPv0EEEOT_OT0_, symObjAddr: 0x30F8, symBinAddr: 0x100005848, symSize: 0x34 }
  - { offsetInCU: 0xCC32, offset: 0xCC32, size: 0x8, addend: 0x0, symName: __ZNSt3__118__unwrap_iter_implIPPP4NodeLb1EE8__unwrapB7v160006ES4_, symObjAddr: 0x312C, symBinAddr: 0x10000587C, symSize: 0x24 }
  - { offsetInCU: 0xCC55, offset: 0xCC55, size: 0x8, addend: 0x0, symName: __ZNSt3__14pairIPPP4NodeS4_EC1B7v160006IS4_S4_LPv0EEEOT_OT0_, symObjAddr: 0x3150, symBinAddr: 0x1000058A0, symSize: 0x3C }
  - { offsetInCU: 0xCCB3, offset: 0xCCB3, size: 0x8, addend: 0x0, symName: __ZNSt3__14pairIPPP4NodeS4_EC2B7v160006IS4_S4_LPv0EEEOT_OT0_, symObjAddr: 0x318C, symBinAddr: 0x1000058DC, symSize: 0x34 }
  - { offsetInCU: 0xCD11, offset: 0xCD11, size: 0x8, addend: 0x0, symName: __ZNSt3__118__unwrap_iter_implIPPP4NodeLb1EE8__rewrapB7v160006ES4_S4_, symObjAddr: 0x31C0, symBinAddr: 0x100005910, symSize: 0x50 }
  - { offsetInCU: 0xCD4C, offset: 0xCD4C, size: 0x8, addend: 0x0, symName: __ZNSt3__114__split_bufferIPP4NodeRNS_9allocatorIS3_EEE21_ConstructTransactionC1B7v160006EPPS3_m, symObjAddr: 0x324C, symBinAddr: 0x10000599C, symSize: 0x3C }
  - { offsetInCU: 0xCD92, offset: 0xCD92, size: 0x8, addend: 0x0, symName: __ZNSt3__116allocator_traitsINS_9allocatorIPP4NodeEEE9constructB7v160006IS4_JS4_EvEEvRS5_PT_DpOT0_, symObjAddr: 0x3288, symBinAddr: 0x1000059D8, symSize: 0x34 }
  - { offsetInCU: 0xCDE9, offset: 0xCDE9, size: 0x8, addend: 0x0, symName: __ZNSt3__114__split_bufferIPP4NodeRNS_9allocatorIS3_EEE7__allocB7v160006Ev, symObjAddr: 0x32BC, symBinAddr: 0x100005A0C, symSize: 0x28 }
  - { offsetInCU: 0xCE0F, offset: 0xCE0F, size: 0x8, addend: 0x0, symName: __ZNKSt3__113move_iteratorIPPP4NodeEdeB7v160006Ev, symObjAddr: 0x32E4, symBinAddr: 0x100005A34, symSize: 0x18 }
  - { offsetInCU: 0xCE35, offset: 0xCE35, size: 0x8, addend: 0x0, symName: __ZNSt3__113move_iteratorIPPP4NodeEppB7v160006Ev, symObjAddr: 0x32FC, symBinAddr: 0x100005A4C, symSize: 0x20 }
  - { offsetInCU: 0xCE5B, offset: 0xCE5B, size: 0x8, addend: 0x0, symName: __ZNSt3__114__split_bufferIPP4NodeRNS_9allocatorIS3_EEE21_ConstructTransactionD1B7v160006Ev, symObjAddr: 0x331C, symBinAddr: 0x100005A6C, symSize: 0x2C }
  - { offsetInCU: 0xCE85, offset: 0xCE85, size: 0x8, addend: 0x0, symName: __ZNKSt3__113move_iteratorIPPP4NodeE4baseB7v160006Ev, symObjAddr: 0x33C0, symBinAddr: 0x100005B10, symSize: 0x18 }
  - { offsetInCU: 0xCEAB, offset: 0xCEAB, size: 0x8, addend: 0x0, symName: __ZNSt3__114__split_bufferIPP4NodeRNS_9allocatorIS3_EEE21_ConstructTransactionC2B7v160006EPPS3_m, symObjAddr: 0x33D8, symBinAddr: 0x100005B28, symSize: 0x44 }
  - { offsetInCU: 0xCEF1, offset: 0xCEF1, size: 0x8, addend: 0x0, symName: __ZNSt3__19allocatorIPP4NodeE9constructB7v160006IS3_JS3_EEEvPT_DpOT0_, symObjAddr: 0x341C, symBinAddr: 0x100005B6C, symSize: 0x28 }
  - { offsetInCU: 0xCF47, offset: 0xCF47, size: 0x8, addend: 0x0, symName: __ZNSt3__117__compressed_pairIPPP4NodeRNS_9allocatorIS3_EEE6secondB7v160006Ev, symObjAddr: 0x3444, symBinAddr: 0x100005B94, symSize: 0x28 }
  - { offsetInCU: 0xCF6D, offset: 0xCF6D, size: 0x8, addend: 0x0, symName: __ZNSt3__122__compressed_pair_elemIRNS_9allocatorIPP4NodeEELi1ELb0EE5__getB7v160006Ev, symObjAddr: 0x346C, symBinAddr: 0x100005BBC, symSize: 0x18 }
  - { offsetInCU: 0xCF93, offset: 0xCF93, size: 0x8, addend: 0x0, symName: __ZNSt3__114__split_bufferIPP4NodeRNS_9allocatorIS3_EEE21_ConstructTransactionD2B7v160006Ev, symObjAddr: 0x3484, symBinAddr: 0x100005BD4, symSize: 0x20 }
  - { offsetInCU: 0xCFBD, offset: 0xCFBD, size: 0x8, addend: 0x0, symName: __ZNSt3__113move_iteratorIPPP4NodeEC2B7v160006ES4_, symObjAddr: 0x34A4, symBinAddr: 0x100005BF4, symSize: 0x20 }
  - { offsetInCU: 0xCFF5, offset: 0xCFF5, size: 0x8, addend: 0x0, symName: __ZNSt3__19allocatorIPP4NodeE9constructB7v160006IS3_JRKS3_EEEvPT_DpOT0_, symObjAddr: 0x34C4, symBinAddr: 0x100005C14, symSize: 0x28 }
  - { offsetInCU: 0xD04B, offset: 0xD04B, size: 0x8, addend: 0x0, symName: __ZNSt3__19allocatorIP4NodeE8allocateB7v160006Em, symObjAddr: 0x34EC, symBinAddr: 0x100005C3C, symSize: 0x58 }
  - { offsetInCU: 0xD089, offset: 0xD089, size: 0x8, addend: 0x0, symName: __ZNSt3__116allocator_traitsINS_9allocatorIP4NodeEEE8max_sizeB7v160006IS4_vEEmRKS4_, symObjAddr: 0x3544, symBinAddr: 0x100005C94, symSize: 0x24 }
  - { offsetInCU: 0xD0B7, offset: 0xD0B7, size: 0x8, addend: 0x0, symName: __ZNKSt3__19allocatorIP4NodeE8max_sizeB7v160006Ev, symObjAddr: 0x35C4, symBinAddr: 0x100005D14, symSize: 0x14 }
  - { offsetInCU: 0xD0E7, offset: 0xD0E7, size: 0x8, addend: 0x0, symName: __ZNKSt3__123__move_backward_trivialclB7v160006IPP4NodeS4_Li0EEENS_4pairIPT_PT0_EES7_S7_S9_, symObjAddr: 0x3778, symBinAddr: 0x100005EC8, symSize: 0x48 }
  - { offsetInCU: 0xD14F, offset: 0xD14F, size: 0x8, addend: 0x0, symName: __ZNSt3__14pairIPPP4NodeS4_EC1B7v160006IRS4_S7_LPv0EEEOT_OT0_, symObjAddr: 0x388C, symBinAddr: 0x100005FDC, symSize: 0x3C }
  - { offsetInCU: 0xD1AD, offset: 0xD1AD, size: 0x8, addend: 0x0, symName: __ZNSt3__14pairIPPP4NodeS4_EC2B7v160006IRS4_S7_LPv0EEEOT_OT0_, symObjAddr: 0x38C8, symBinAddr: 0x100006018, symSize: 0x34 }
  - { offsetInCU: 0xD215, offset: 0xD215, size: 0x8, addend: 0x0, symName: __ZNKSt3__16__lessImmEclB7v160006ERKmS3_, symObjAddr: 0x3950, symBinAddr: 0x1000060A0, symSize: 0x34 }
  - { offsetInCU: 0xD257, offset: 0xD257, size: 0x8, addend: 0x0, symName: __ZNSt3__114__split_bufferIPP4NodeRNS_9allocatorIS3_EEEC2EmmS6_, symObjAddr: 0x3984, symBinAddr: 0x1000060D4, symSize: 0xD4 }
  - { offsetInCU: 0xD2CB, offset: 0xD2CB, size: 0x8, addend: 0x0, symName: __ZNSt3__117__compressed_pairIPPP4NodeRNS_9allocatorIS3_EEEC1B7v160006IDnS7_EEOT_OT0_, symObjAddr: 0x3A58, symBinAddr: 0x1000061A8, symSize: 0x3C }
  - { offsetInCU: 0xD323, offset: 0xD323, size: 0x8, addend: 0x0, symName: __ZNSt3__117__compressed_pairIPPP4NodeRNS_9allocatorIS3_EEEC2B7v160006IDnS7_EEOT_OT0_, symObjAddr: 0x3AD4, symBinAddr: 0x100006224, symSize: 0x48 }
  - { offsetInCU: 0xD37B, offset: 0xD37B, size: 0x8, addend: 0x0, symName: __ZNSt3__122__compressed_pair_elemIRNS_9allocatorIPP4NodeEELi1ELb0EEC2B7v160006IS6_vEEOT_, symObjAddr: 0x3B1C, symBinAddr: 0x10000626C, symSize: 0x20 }
  - { offsetInCU: 0xD3BD, offset: 0xD3BD, size: 0x8, addend: 0x0, symName: __ZNSt3__19allocatorIPP4NodeE8allocateB7v160006Em, symObjAddr: 0x3B3C, symBinAddr: 0x10000628C, symSize: 0x58 }
  - { offsetInCU: 0xD3FB, offset: 0xD3FB, size: 0x8, addend: 0x0, symName: __ZNSt3__116allocator_traitsINS_9allocatorIPP4NodeEEE8max_sizeB7v160006IS5_vEEmRKS5_, symObjAddr: 0x3B94, symBinAddr: 0x1000062E4, symSize: 0x24 }
  - { offsetInCU: 0xD429, offset: 0xD429, size: 0x8, addend: 0x0, symName: __ZNKSt3__19allocatorIPP4NodeE8max_sizeB7v160006Ev, symObjAddr: 0x3BB8, symBinAddr: 0x100006308, symSize: 0x14 }
  - { offsetInCU: 0xD44F, offset: 0xD44F, size: 0x8, addend: 0x0, symName: __ZNSt3__122__allocator_destructorINS_9allocatorIP4NodeEEEC2B7v160006ERS4_m, symObjAddr: 0x3BCC, symBinAddr: 0x10000631C, symSize: 0x2C }
  - { offsetInCU: 0xD495, offset: 0xD495, size: 0x8, addend: 0x0, symName: __ZNSt3__110unique_ptrIPP4NodeNS_22__allocator_destructorINS_9allocatorIS2_EEEEEC2B7v160006ILb1EvEES3_NS_16__dependent_typeINS_27__unique_ptr_deleter_sfinaeIS7_EEXT_EE20__good_rval_ref_typeE, symObjAddr: 0x3BF8, symBinAddr: 0x100006348, symSize: 0x48 }
  - { offsetInCU: 0xD4E6, offset: 0xD4E6, size: 0x8, addend: 0x0, symName: __ZNSt3__117__compressed_pairIPP4NodeNS_22__allocator_destructorINS_9allocatorIS2_EEEEEC1B7v160006IRS3_S7_EEOT_OT0_, symObjAddr: 0x3C40, symBinAddr: 0x100006390, symSize: 0x3C }
  - { offsetInCU: 0xD53E, offset: 0xD53E, size: 0x8, addend: 0x0, symName: __ZNSt3__117__compressed_pairIPP4NodeNS_22__allocator_destructorINS_9allocatorIS2_EEEEEC2B7v160006IRS3_S7_EEOT_OT0_, symObjAddr: 0x3C7C, symBinAddr: 0x1000063CC, symSize: 0x48 }
  - { offsetInCU: 0xD596, offset: 0xD596, size: 0x8, addend: 0x0, symName: __ZNSt3__122__compressed_pair_elemIPP4NodeLi0ELb0EEC2B7v160006IRS3_vEEOT_, symObjAddr: 0x3CC4, symBinAddr: 0x100006414, symSize: 0x24 }
  - { offsetInCU: 0xD5D8, offset: 0xD5D8, size: 0x8, addend: 0x0, symName: __ZNSt3__122__compressed_pair_elemINS_22__allocator_destructorINS_9allocatorIP4NodeEEEELi1ELb0EEC2B7v160006IS6_vEEOT_, symObjAddr: 0x3CE8, symBinAddr: 0x100006438, symSize: 0x24 }
  - { offsetInCU: 0xD61A, offset: 0xD61A, size: 0x8, addend: 0x0, symName: __ZNKSt3__117__compressed_pairIPP4NodeNS_22__allocator_destructorINS_9allocatorIS2_EEEEE5firstB7v160006Ev, symObjAddr: 0x3D0C, symBinAddr: 0x10000645C, symSize: 0x24 }
  - { offsetInCU: 0xD640, offset: 0xD640, size: 0x8, addend: 0x0, symName: __ZNKSt3__122__compressed_pair_elemIPP4NodeLi0ELb0EE5__getB7v160006Ev, symObjAddr: 0x3D30, symBinAddr: 0x100006480, symSize: 0x14 }
  - { offsetInCU: 0xD666, offset: 0xD666, size: 0x8, addend: 0x0, symName: __ZNSt3__117__compressed_pairIPP4NodeNS_22__allocator_destructorINS_9allocatorIS2_EEEEE5firstB7v160006Ev, symObjAddr: 0x3D44, symBinAddr: 0x100006494, symSize: 0x24 }
  - { offsetInCU: 0xD68C, offset: 0xD68C, size: 0x8, addend: 0x0, symName: __ZNSt3__122__compressed_pair_elemIPP4NodeLi0ELb0EE5__getB7v160006Ev, symObjAddr: 0x3D68, symBinAddr: 0x1000064B8, symSize: 0x14 }
  - { offsetInCU: 0xD6B2, offset: 0xD6B2, size: 0x8, addend: 0x0, symName: __ZNSt3__117__compressed_pairIPPP4NodeNS_9allocatorIS3_EEE5firstB7v160006Ev, symObjAddr: 0x3D7C, symBinAddr: 0x1000064CC, symSize: 0x24 }
  - { offsetInCU: 0xD6D8, offset: 0xD6D8, size: 0x8, addend: 0x0, symName: __ZNSt3__122__compressed_pair_elemIPPP4NodeLi0ELb0EE5__getB7v160006Ev, symObjAddr: 0x3DA0, symBinAddr: 0x1000064F0, symSize: 0x14 }
  - { offsetInCU: 0xD6FE, offset: 0xD6FE, size: 0x8, addend: 0x0, symName: __ZNSt3__117__compressed_pairIPPP4NodeRNS_9allocatorIS3_EEE5firstB7v160006Ev, symObjAddr: 0x3DB4, symBinAddr: 0x100006504, symSize: 0x24 }
  - { offsetInCU: 0xD724, offset: 0xD724, size: 0x8, addend: 0x0, symName: __ZNSt3__110unique_ptrIPP4NodeNS_22__allocator_destructorINS_9allocatorIS2_EEEEED2B7v160006Ev, symObjAddr: 0x3DD8, symBinAddr: 0x100006528, symSize: 0x30 }
  - { offsetInCU: 0xD74E, offset: 0xD74E, size: 0x8, addend: 0x0, symName: __ZNSt3__110unique_ptrIPP4NodeNS_22__allocator_destructorINS_9allocatorIS2_EEEEE5resetB7v160006ES3_, symObjAddr: 0x3E08, symBinAddr: 0x100006558, symSize: 0x78 }
  - { offsetInCU: 0xD792, offset: 0xD792, size: 0x8, addend: 0x0, symName: __ZNSt3__117__compressed_pairIPP4NodeNS_22__allocator_destructorINS_9allocatorIS2_EEEEE6secondB7v160006Ev, symObjAddr: 0x3E80, symBinAddr: 0x1000065D0, symSize: 0x28 }
  - { offsetInCU: 0xD7B8, offset: 0xD7B8, size: 0x8, addend: 0x0, symName: __ZNSt3__122__allocator_destructorINS_9allocatorIP4NodeEEEclB7v160006EPS3_, symObjAddr: 0x3EA8, symBinAddr: 0x1000065F8, symSize: 0x34 }
  - { offsetInCU: 0xD7EC, offset: 0xD7EC, size: 0x8, addend: 0x0, symName: __ZNSt3__122__compressed_pair_elemINS_22__allocator_destructorINS_9allocatorIP4NodeEEEELi1ELb0EE5__getB7v160006Ev, symObjAddr: 0x3EDC, symBinAddr: 0x10000662C, symSize: 0x14 }
  - { offsetInCU: 0xD812, offset: 0xD812, size: 0x8, addend: 0x0, symName: __ZNSt3__114__split_bufferIPP4NodeRNS_9allocatorIS3_EEED2Ev, symObjAddr: 0x3EF0, symBinAddr: 0x100006640, symSize: 0x8C }
  - { offsetInCU: 0xD83E, offset: 0xD83E, size: 0x8, addend: 0x0, symName: __ZNSt3__114__split_bufferIPP4NodeRNS_9allocatorIS3_EEE5clearB7v160006Ev, symObjAddr: 0x3F7C, symBinAddr: 0x1000066CC, symSize: 0x28 }
  - { offsetInCU: 0xD864, offset: 0xD864, size: 0x8, addend: 0x0, symName: __ZNKSt3__114__split_bufferIPP4NodeRNS_9allocatorIS3_EEE8capacityB7v160006Ev, symObjAddr: 0x3FA4, symBinAddr: 0x1000066F4, symSize: 0x40 }
  - { offsetInCU: 0xD88A, offset: 0xD88A, size: 0x8, addend: 0x0, symName: __ZNSt3__114__split_bufferIPP4NodeRNS_9allocatorIS3_EEE17__destruct_at_endB7v160006EPS3_, symObjAddr: 0x3FE4, symBinAddr: 0x100006734, symSize: 0x2C }
  - { offsetInCU: 0xD8BE, offset: 0xD8BE, size: 0x8, addend: 0x0, symName: __ZNSt3__114__split_bufferIPP4NodeRNS_9allocatorIS3_EEE17__destruct_at_endB7v160006EPS3_NS_17integral_constantIbLb0EEE, symObjAddr: 0x4010, symBinAddr: 0x100006760, symSize: 0x80 }
  - { offsetInCU: 0xD8FE, offset: 0xD8FE, size: 0x8, addend: 0x0, symName: __ZNKSt3__114__split_bufferIPP4NodeRNS_9allocatorIS3_EEE9__end_capB7v160006Ev, symObjAddr: 0x4090, symBinAddr: 0x1000067E0, symSize: 0x28 }
  - { offsetInCU: 0xD924, offset: 0xD924, size: 0x8, addend: 0x0, symName: __ZNKSt3__117__compressed_pairIPPP4NodeRNS_9allocatorIS3_EEE5firstB7v160006Ev, symObjAddr: 0x40B8, symBinAddr: 0x100006808, symSize: 0x24 }
  - { offsetInCU: 0xD94A, offset: 0xD94A, size: 0x8, addend: 0x0, symName: __ZNSt3__19allocatorIP4NodeE9constructB7v160006IS2_JRKS2_EEEvPT_DpOT0_, symObjAddr: 0x40DC, symBinAddr: 0x10000682C, symSize: 0x28 }
  - { offsetInCU: 0xD9A0, offset: 0xD9A0, size: 0x8, addend: 0x0, symName: __ZNKSt3__15dequeIP4NodeNS_9allocatorIS2_EEE5emptyB7v160006Ev, symObjAddr: 0x4104, symBinAddr: 0x100006854, symSize: 0x30 }
  - { offsetInCU: 0xD9C6, offset: 0xD9C6, size: 0x8, addend: 0x0, symName: __ZNSt3__15dequeIP4NodeNS_9allocatorIS2_EEE5frontEv, symObjAddr: 0x4134, symBinAddr: 0x100006884, symSize: 0x50 }
  - { offsetInCU: 0xD9EE, offset: 0xD9EE, size: 0x8, addend: 0x0, symName: __ZNKSt3__19basic_iosIcNS_11char_traitsIcEEE5widenB7v160006Ec, symObjAddr: 0x4184, symBinAddr: 0x1000068D4, symSize: 0x84 }
  - { offsetInCU: 0xDA5C, offset: 0xDA5C, size: 0x8, addend: 0x0, symName: __ZNKSt3__15ctypeIcE5widenB7v160006Ec, symObjAddr: 0x4234, symBinAddr: 0x100006984, symSize: 0x38 }
  - { offsetInCU: 0xDA91, offset: 0xDA91, size: 0x8, addend: 0x0, symName: __ZNSt3__15dequeIP4NodeNS_9allocatorIS2_EEE9pop_frontEv, symObjAddr: 0x426C, symBinAddr: 0x1000069BC, symSize: 0xAC }
  - { offsetInCU: 0xDAC8, offset: 0xDAC8, size: 0x8, addend: 0x0, symName: __ZNSt3__15dequeIP4NodeNS_9allocatorIS2_EEE26__maybe_remove_front_spareB7v160006Eb, symObjAddr: 0x432C, symBinAddr: 0x100006A7C, symSize: 0xDC }
  - { offsetInCU: 0xDAFD, offset: 0xDAFD, size: 0x8, addend: 0x0, symName: __ZNKSt3__15dequeIP4NodeNS_9allocatorIS2_EEE20__front_spare_blocksB7v160006Ev, symObjAddr: 0x4408, symBinAddr: 0x100006B58, symSize: 0x2C }
  - { offsetInCU: 0xDB23, offset: 0xDB23, size: 0x8, addend: 0x0, symName: __ZNSt3__111char_traitsIcE6lengthEPKc, symObjAddr: 0x4620, symBinAddr: 0x100006D70, symSize: 0x34 }
  - { offsetInCU: 0xDB64, offset: 0xDB64, size: 0x8, addend: 0x0, symName: __ZNKSt3__113basic_ostreamIcNS_11char_traitsIcEEE6sentrycvbB7v160006Ev, symObjAddr: 0x4654, symBinAddr: 0x100006DA4, symSize: 0x1C }
  - { offsetInCU: 0xDB8A, offset: 0xDB8A, size: 0x8, addend: 0x0, symName: __ZNSt3__119ostreambuf_iteratorIcNS_11char_traitsIcEEEC1B7v160006ERNS_13basic_ostreamIcS2_EE, symObjAddr: 0x48B0, symBinAddr: 0x100007000, symSize: 0x34 }
  - { offsetInCU: 0xDBC2, offset: 0xDBC2, size: 0x8, addend: 0x0, symName: __ZNKSt3__18ios_base5flagsB7v160006Ev, symObjAddr: 0x48E4, symBinAddr: 0x100007034, symSize: 0x18 }
  - { offsetInCU: 0xDBEA, offset: 0xDBEA, size: 0x8, addend: 0x0, symName: __ZNKSt3__19basic_iosIcNS_11char_traitsIcEEE4fillB7v160006Ev, symObjAddr: 0x48FC, symBinAddr: 0x10000704C, symSize: 0x64 }
  - { offsetInCU: 0xDC12, offset: 0xDC12, size: 0x8, addend: 0x0, symName: __ZNKSt3__119ostreambuf_iteratorIcNS_11char_traitsIcEEE6failedB7v160006Ev, symObjAddr: 0x4960, symBinAddr: 0x1000070B0, symSize: 0x24 }
  - { offsetInCU: 0xDC38, offset: 0xDC38, size: 0x8, addend: 0x0, symName: __ZNSt3__19basic_iosIcNS_11char_traitsIcEEE8setstateB7v160006Ej, symObjAddr: 0x4984, symBinAddr: 0x1000070D4, symSize: 0x2C }
  - { offsetInCU: 0xDC6D, offset: 0xDC6D, size: 0x8, addend: 0x0, symName: __ZNKSt3__18ios_base5widthB7v160006Ev, symObjAddr: 0x49B0, symBinAddr: 0x100007100, symSize: 0x18 }
  - { offsetInCU: 0xDC95, offset: 0xDC95, size: 0x8, addend: 0x0, symName: __ZNSt3__115basic_streambufIcNS_11char_traitsIcEEE5sputnB7v160006EPKcl, symObjAddr: 0x49C8, symBinAddr: 0x100007118, symSize: 0x3C }
  - { offsetInCU: 0xDCD7, offset: 0xDCD7, size: 0x8, addend: 0x0, symName: __ZNSt3__112basic_stringIcNS_11char_traitsIcEENS_9allocatorIcEEEC1B7v160006Emc, symObjAddr: 0x4A04, symBinAddr: 0x100007154, symSize: 0x3C }
  - { offsetInCU: 0xDD1F, offset: 0xDD1F, size: 0x8, addend: 0x0, symName: __ZNKSt3__112basic_stringIcNS_11char_traitsIcEENS_9allocatorIcEEE4dataB7v160006Ev, symObjAddr: 0x4A40, symBinAddr: 0x100007190, symSize: 0x28 }
  - { offsetInCU: 0xDD45, offset: 0xDD45, size: 0x8, addend: 0x0, symName: __ZNSt3__18ios_base5widthB7v160006El, symObjAddr: 0x4A68, symBinAddr: 0x1000071B8, symSize: 0x2C }
  - { offsetInCU: 0xDD8B, offset: 0xDD8B, size: 0x8, addend: 0x0, symName: __ZNSt3__112basic_stringIcNS_11char_traitsIcEENS_9allocatorIcEEEC2B7v160006Emc, symObjAddr: 0x4A94, symBinAddr: 0x1000071E4, symSize: 0x54 }
  - { offsetInCU: 0xDDD3, offset: 0xDDD3, size: 0x8, addend: 0x0, symName: __ZNSt3__117__compressed_pairINS_12basic_stringIcNS_11char_traitsIcEENS_9allocatorIcEEE5__repES5_EC1B7v160006INS_18__default_init_tagESA_EEOT_OT0_, symObjAddr: 0x4AE8, symBinAddr: 0x100007238, symSize: 0x3C }
  - { offsetInCU: 0xDE2B, offset: 0xDE2B, size: 0x8, addend: 0x0, symName: __ZNSt3__117__compressed_pairINS_12basic_stringIcNS_11char_traitsIcEENS_9allocatorIcEEE5__repES5_EC2B7v160006INS_18__default_init_tagESA_EEOT_OT0_, symObjAddr: 0x4B34, symBinAddr: 0x100007284, symSize: 0x3C }
  - { offsetInCU: 0xDE83, offset: 0xDE83, size: 0x8, addend: 0x0, symName: __ZNSt3__122__compressed_pair_elemINS_12basic_stringIcNS_11char_traitsIcEENS_9allocatorIcEEE5__repELi0ELb0EEC2B7v160006ENS_18__default_init_tagE, symObjAddr: 0x4B70, symBinAddr: 0x1000072C0, symSize: 0x14 }
  - { offsetInCU: 0xDEB7, offset: 0xDEB7, size: 0x8, addend: 0x0, symName: __ZNSt3__122__compressed_pair_elemINS_9allocatorIcEELi1ELb1EEC2B7v160006ENS_18__default_init_tagE, symObjAddr: 0x4B84, symBinAddr: 0x1000072D4, symSize: 0x2C }
  - { offsetInCU: 0xDEEB, offset: 0xDEEB, size: 0x8, addend: 0x0, symName: __ZNSt3__19allocatorIcEC2B7v160006Ev, symObjAddr: 0x4BB0, symBinAddr: 0x100007300, symSize: 0x2C }
  - { offsetInCU: 0xDF15, offset: 0xDF15, size: 0x8, addend: 0x0, symName: __ZNSt3__116__non_trivial_ifILb1ENS_9allocatorIcEEEC2B7v160006Ev, symObjAddr: 0x4BDC, symBinAddr: 0x10000732C, symSize: 0x14 }
  - { offsetInCU: 0xDF3F, offset: 0xDF3F, size: 0x8, addend: 0x0, symName: __ZNKSt3__112basic_stringIcNS_11char_traitsIcEENS_9allocatorIcEEE13__get_pointerB7v160006Ev, symObjAddr: 0x4C04, symBinAddr: 0x100007354, symSize: 0x54 }
  - { offsetInCU: 0xDF65, offset: 0xDF65, size: 0x8, addend: 0x0, symName: __ZNKSt3__112basic_stringIcNS_11char_traitsIcEENS_9allocatorIcEEE9__is_longB7v160006Ev, symObjAddr: 0x4C58, symBinAddr: 0x1000073A8, symSize: 0x38 }
  - { offsetInCU: 0xDF8B, offset: 0xDF8B, size: 0x8, addend: 0x0, symName: __ZNKSt3__112basic_stringIcNS_11char_traitsIcEENS_9allocatorIcEEE18__get_long_pointerB7v160006Ev, symObjAddr: 0x4C90, symBinAddr: 0x1000073E0, symSize: 0x28 }
  - { offsetInCU: 0xDFB1, offset: 0xDFB1, size: 0x8, addend: 0x0, symName: __ZNKSt3__112basic_stringIcNS_11char_traitsIcEENS_9allocatorIcEEE19__get_short_pointerB7v160006Ev, symObjAddr: 0x4CB8, symBinAddr: 0x100007408, symSize: 0x28 }
  - { offsetInCU: 0xDFD7, offset: 0xDFD7, size: 0x8, addend: 0x0, symName: __ZNKSt3__117__compressed_pairINS_12basic_stringIcNS_11char_traitsIcEENS_9allocatorIcEEE5__repES5_E5firstB7v160006Ev, symObjAddr: 0x4CE0, symBinAddr: 0x100007430, symSize: 0x24 }
  - { offsetInCU: 0xDFFD, offset: 0xDFFD, size: 0x8, addend: 0x0, symName: __ZNKSt3__122__compressed_pair_elemINS_12basic_stringIcNS_11char_traitsIcEENS_9allocatorIcEEE5__repELi0ELb0EE5__getB7v160006Ev, symObjAddr: 0x4D04, symBinAddr: 0x100007454, symSize: 0x14 }
  - { offsetInCU: 0xE023, offset: 0xE023, size: 0x8, addend: 0x0, symName: __ZNSt3__114pointer_traitsIPKcE10pointer_toB7v160006ERS1_, symObjAddr: 0x4D18, symBinAddr: 0x100007468, symSize: 0x14 }
  - { offsetInCU: 0xE046, offset: 0xE046, size: 0x8, addend: 0x0, symName: __ZNSt3__119ostreambuf_iteratorIcNS_11char_traitsIcEEEC2B7v160006ERNS_13basic_ostreamIcS2_EE, symObjAddr: 0x4D2C, symBinAddr: 0x10000747C, symSize: 0x54 }
  - { offsetInCU: 0xE07E, offset: 0xE07E, size: 0x8, addend: 0x0, symName: __ZNKSt3__19basic_iosIcNS_11char_traitsIcEEE5rdbufB7v160006Ev, symObjAddr: 0x4D80, symBinAddr: 0x1000074D0, symSize: 0x24 }
  - { offsetInCU: 0xE0A6, offset: 0xE0A6, size: 0x8, addend: 0x0, symName: __ZNKSt3__18ios_base5rdbufB7v160006Ev, symObjAddr: 0x4DA4, symBinAddr: 0x1000074F4, symSize: 0x18 }
  - { offsetInCU: 0xE0CC, offset: 0xE0CC, size: 0x8, addend: 0x0, symName: __ZNSt3__111char_traitsIcE11eq_int_typeEii, symObjAddr: 0x4DBC, symBinAddr: 0x10000750C, symSize: 0x28 }
  - { offsetInCU: 0xE0FD, offset: 0xE0FD, size: 0x8, addend: 0x0, symName: __ZNSt3__111char_traitsIcE3eofEv, symObjAddr: 0x4DE4, symBinAddr: 0x100007534, symSize: 0x8 }
  - { offsetInCU: 0xE111, offset: 0xE111, size: 0x8, addend: 0x0, symName: __ZNSt3__18ios_base8setstateB7v160006Ej, symObjAddr: 0x4DEC, symBinAddr: 0x10000753C, symSize: 0x34 }
  - { offsetInCU: 0xE148, offset: 0xE148, size: 0x8, addend: 0x0, symName: __ZNSt3__15stackIP4NodeNS_5dequeIS2_NS_9allocatorIS2_EEEEEC2B7v160006Ev, symObjAddr: 0x4E44, symBinAddr: 0x100007594, symSize: 0x2C }
  - { offsetInCU: 0xE172, offset: 0xE172, size: 0x8, addend: 0x0, symName: __ZNSt3__15dequeIP4NodeNS_9allocatorIS2_EEE4backEv, symObjAddr: 0x4E70, symBinAddr: 0x1000075C0, symSize: 0x68 }
  - { offsetInCU: 0xE1A9, offset: 0xE1A9, size: 0x8, addend: 0x0, symName: __ZNSt3__15dequeIP4NodeNS_9allocatorIS2_EEE8pop_backEv, symObjAddr: 0x4ED8, symBinAddr: 0x100007628, symSize: 0xB8 }
  - { offsetInCU: 0xE1EF, offset: 0xE1EF, size: 0x8, addend: 0x0, symName: __ZNSt3__15dequeIP4NodeNS_9allocatorIS2_EEE25__maybe_remove_back_spareB7v160006Eb, symObjAddr: 0x4F90, symBinAddr: 0x1000076E0, symSize: 0xCC }
  - { offsetInCU: 0xE224, offset: 0xE224, size: 0x8, addend: 0x0, symName: __ZNKSt3__15dequeIP4NodeNS_9allocatorIS2_EEE19__back_spare_blocksB7v160006Ev, symObjAddr: 0x505C, symBinAddr: 0x1000077AC, symSize: 0x2C }
  - { offsetInCU: 0xE24A, offset: 0xE24A, size: 0x8, addend: 0x0, symName: __ZNSt3__114__split_bufferIPP4NodeNS_9allocatorIS3_EEE4backB7v160006Ev, symObjAddr: 0x5088, symBinAddr: 0x1000077D8, symSize: 0x1C }
  - { offsetInCU: 0xE270, offset: 0xE270, size: 0x8, addend: 0x0, symName: __ZNSt3__114__split_bufferIPP4NodeNS_9allocatorIS3_EEE8pop_backB7v160006Ev, symObjAddr: 0x50A4, symBinAddr: 0x1000077F4, symSize: 0x2C }
...
